target datalayout = "e-m:e-p270:32:32-p271:32:32-p272:64:64-i64:64-i128:128-f80:128-n8:16:32:64-S128"
target triple = "x86_64-pc-linux-gnu"

%struct.AVBSFContext = type { ptr, ptr, ptr, ptr, ptr, %struct.AVRational, %struct.AVRational }
%struct.AVRational = type { i32, i32 }
%struct.TraceHeadersContext = type { ptr, %struct.CodedBitstreamFragment }
%struct.CodedBitstreamFragment = type { ptr, i64, i64, ptr, i32, i32, ptr }
%struct.AVPacket = type { ptr, i64, i64, ptr, i32, i32, i32, ptr, i32, i64, i64, ptr, ptr, %struct.AVRational }

@.str.2 = private unnamed_addr constant [12 x i8] c", key frame\00", align 1
@.str.3 = private unnamed_addr constant [10 x i8] c", corrupt\00", align 1
@.str.4 = private unnamed_addr constant [10 x i8] c", pts %ld\00", align 1
@.str.5 = private unnamed_addr constant [9 x i8] c", no pts\00", align 1
@.str.6 = private unnamed_addr constant [10 x i8] c", dts %ld\00", align 1
@.str.7 = private unnamed_addr constant [9 x i8] c", no dts\00", align 1
@.str.8 = private unnamed_addr constant [15 x i8] c", duration %ld\00", align 1
@.str.9 = private unnamed_addr constant [21 x i8] c"Packet: %d bytes%s.\0A\00", align 1
@.str.10 = private unnamed_addr constant [12 x i8] c"Side data:\0A\00", align 1
@.str.11 = private unnamed_addr constant [10 x i8] c"Payload:\0A\00", align 1

; Function Attrs: nounwind uwtable
define internal i32 @trace_headers(ptr noundef %0, ptr noundef %1) #0 {
  %3 = alloca i32, align 4
  %4 = alloca ptr, align 8
  %5 = alloca ptr, align 8
  %6 = alloca ptr, align 8
  %7 = alloca ptr, align 8
  %8 = alloca [256 x i8], align 16
  %9 = alloca i32, align 4
  %10 = alloca i32, align 4
  store ptr %0, ptr %4, align 8, !tbaa !4
  store ptr %1, ptr %5, align 8, !tbaa !42
  call void @llvm.lifetime.start.p0(i64 8, ptr %6) #4
  %11 = load ptr, ptr %4, align 8, !tbaa !4
  %12 = getelementptr inbounds nuw %struct.AVBSFContext, ptr %11, i32 0, i32 2
  %13 = load ptr, ptr %12, align 8, !tbaa !9
  store ptr %13, ptr %6, align 8, !tbaa !16
  call void @llvm.lifetime.start.p0(i64 8, ptr %7) #4
  %14 = load ptr, ptr %6, align 8, !tbaa !16
  %15 = getelementptr inbounds nuw %struct.TraceHeadersContext, ptr %14, i32 0, i32 1
  store ptr %15, ptr %7, align 8, !tbaa !40
  call void @llvm.lifetime.start.p0(i64 256, ptr %8) #4
  call void @llvm.memset.p0.i64(ptr align 16 %8, i8 0, i64 256, i1 false)
  call void @llvm.lifetime.start.p0(i64 4, ptr %9) #4
  %16 = load ptr, ptr %4, align 8, !tbaa !4
  %17 = load ptr, ptr %5, align 8, !tbaa !42
  %18 = call i32 @ff_bsf_get_packet_ref(ptr noundef %16, ptr noundef %17)
  store i32 %18, ptr %9, align 4, !tbaa !25
  %19 = load i32, ptr %9, align 4, !tbaa !25
  %20 = icmp slt i32 %19, 0
  br i1 %20, label %21, label %23

21:                                               ; preds = %2
  %22 = load i32, ptr %9, align 4, !tbaa !25
  store i32 %22, ptr %3, align 4
  store i32 1, ptr %10, align 4
  br label %119

23:                                               ; preds = %2
  %24 = load ptr, ptr %5, align 8, !tbaa !42
  %25 = getelementptr inbounds nuw %struct.AVPacket, ptr %24, i32 0, i32 6
  %26 = load i32, ptr %25, align 8, !tbaa !44
  %27 = and i32 %26, 1
  %28 = icmp ne i32 %27, 0
  br i1 %28, label %29, label %32

29:                                               ; preds = %23
  %30 = getelementptr inbounds [256 x i8], ptr %8, i64 0, i64 0
  %31 = call i64 @av_strlcat(ptr noundef %30, ptr noundef @.str.2, i64 noundef 256)
  br label %32

32:                                               ; preds = %29, %23
  %33 = load ptr, ptr %5, align 8, !tbaa !42
  %34 = getelementptr inbounds nuw %struct.AVPacket, ptr %33, i32 0, i32 6
  %35 = load i32, ptr %34, align 8, !tbaa !44
  %36 = and i32 %35, 2
  %37 = icmp ne i32 %36, 0
  br i1 %37, label %38, label %41

38:                                               ; preds = %32
  %39 = getelementptr inbounds [256 x i8], ptr %8, i64 0, i64 0
  %40 = call i64 @av_strlcat(ptr noundef %39, ptr noundef @.str.3, i64 noundef 256)
  br label %41

41:                                               ; preds = %38, %32
  %42 = load ptr, ptr %5, align 8, !tbaa !42
  %43 = getelementptr inbounds nuw %struct.AVPacket, ptr %42, i32 0, i32 1
  %44 = load i64, ptr %43, align 8, !tbaa !46
  %45 = icmp ne i64 %44, -9223372036854775808
  br i1 %45, label %46, label %52

46:                                               ; preds = %41
  %47 = getelementptr inbounds [256 x i8], ptr %8, i64 0, i64 0
  %48 = load ptr, ptr %5, align 8, !tbaa !42
  %49 = getelementptr inbounds nuw %struct.AVPacket, ptr %48, i32 0, i32 1
  %50 = load i64, ptr %49, align 8, !tbaa !46
  %51 = call i64 (ptr, i64, ptr, ...) @av_strlcatf(ptr noundef %47, i64 noundef 256, ptr noundef @.str.4, i64 noundef %50)
  br label %55

52:                                               ; preds = %41
  %53 = getelementptr inbounds [256 x i8], ptr %8, i64 0, i64 0
  %54 = call i64 @av_strlcat(ptr noundef %53, ptr noundef @.str.5, i64 noundef 256)
  br label %55

55:                                               ; preds = %52, %46
  %56 = load ptr, ptr %5, align 8, !tbaa !42
  %57 = getelementptr inbounds nuw %struct.AVPacket, ptr %56, i32 0, i32 2
  %58 = load i64, ptr %57, align 8, !tbaa !47
  %59 = icmp ne i64 %58, -9223372036854775808
  br i1 %59, label %60, label %66

60:                                               ; preds = %55
  %61 = getelementptr inbounds [256 x i8], ptr %8, i64 0, i64 0
  %62 = load ptr, ptr %5, align 8, !tbaa !42
  %63 = getelementptr inbounds nuw %struct.AVPacket, ptr %62, i32 0, i32 2
  %64 = load i64, ptr %63, align 8, !tbaa !47
  %65 = call i64 (ptr, i64, ptr, ...) @av_strlcatf(ptr noundef %61, i64 noundef 256, ptr noundef @.str.6, i64 noundef %64)
  br label %69

66:                                               ; preds = %55
  %67 = getelementptr inbounds [256 x i8], ptr %8, i64 0, i64 0
  %68 = call i64 @av_strlcat(ptr noundef %67, ptr noundef @.str.7, i64 noundef 256)
  br label %69

69:                                               ; preds = %66, %60
  %70 = load ptr, ptr %5, align 8, !tbaa !42
  %71 = getelementptr inbounds nuw %struct.AVPacket, ptr %70, i32 0, i32 9
  %72 = load i64, ptr %71, align 8, !tbaa !48
  %73 = icmp sgt i64 %72, 0
  br i1 %73, label %74, label %80

74:                                               ; preds = %69
  %75 = getelementptr inbounds [256 x i8], ptr %8, i64 0, i64 0
  %76 = load ptr, ptr %5, align 8, !tbaa !42
  %77 = getelementptr inbounds nuw %struct.AVPacket, ptr %76, i32 0, i32 9
  %78 = load i64, ptr %77, align 8, !tbaa !48
  %79 = call i64 (ptr, i64, ptr, ...) @av_strlcatf(ptr noundef %75, i64 noundef 256, ptr noundef @.str.8, i64 noundef %78)
  br label %80

80:                                               ; preds = %74, %69
  %81 = load ptr, ptr %4, align 8, !tbaa !4
  %82 = load ptr, ptr %5, align 8, !tbaa !42
  %83 = getelementptr inbounds nuw %struct.AVPacket, ptr %82, i32 0, i32 4
  %84 = load i32, ptr %83, align 8, !tbaa !49
  %85 = getelementptr inbounds [256 x i8], ptr %8, i64 0, i64 0
  call void (ptr, i32, ptr, ...) @av_log(ptr noundef %81, i32 noundef 32, ptr noundef @.str.9, i32 noundef %84, ptr noundef %85)
  %86 = load ptr, ptr %5, align 8, !tbaa !42
  %87 = call ptr @av_packet_get_side_data(ptr noundef %86, i32 noundef 1, ptr noundef null)
  %88 = icmp ne ptr %87, null
  br i1 %88, label %89, label %105

89:                                               ; preds = %80
  %90 = load ptr, ptr %4, align 8, !tbaa !4
  call void (ptr, i32, ptr, ...) @av_log(ptr noundef %90, i32 noundef 32, ptr noundef @.str.10)
  %91 = load ptr, ptr %6, align 8, !tbaa !16
  %92 = getelementptr inbounds nuw %struct.TraceHeadersContext, ptr %91, i32 0, i32 0
  %93 = load ptr, ptr %92, align 8, !tbaa !26
  %94 = load ptr, ptr %7, align 8, !tbaa !40
  %95 = load ptr, ptr %5, align 8, !tbaa !42
  %96 = call i32 @ff_cbs_read_packet_side_data(ptr noundef %93, ptr noundef %94, ptr noundef %95)
  store i32 %96, ptr %9, align 4, !tbaa !25
  %97 = load ptr, ptr %7, align 8, !tbaa !40
  call void @ff_cbs_fragment_reset(ptr noundef %97)
  %98 = load i32, ptr %9, align 4, !tbaa !25
  %99 = icmp slt i32 %98, 0
  br i1 %99, label %100, label %103

100:                                              ; preds = %89
  %101 = load ptr, ptr %5, align 8, !tbaa !42
  call void @av_packet_unref(ptr noundef %101)
  %102 = load i32, ptr %9, align 4, !tbaa !25
  store i32 %102, ptr %3, align 4
  store i32 1, ptr %10, align 4
  br label %119

103:                                              ; preds = %89
  %104 = load ptr, ptr %4, align 8, !tbaa !4
  call void (ptr, i32, ptr, ...) @av_log(ptr noundef %104, i32 noundef 32, ptr noundef @.str.11)
  br label %105

105:                                              ; preds = %103, %80
  %106 = load ptr, ptr %6, align 8, !tbaa !16
  %107 = getelementptr inbounds nuw %struct.TraceHeadersContext, ptr %106, i32 0, i32 0
  %108 = load ptr, ptr %107, align 8, !tbaa !26
  %109 = load ptr, ptr %7, align 8, !tbaa !40
  %110 = load ptr, ptr %5, align 8, !tbaa !42
  %111 = call i32 @ff_cbs_read_packet(ptr noundef %108, ptr noundef %109, ptr noundef %110)
  store i32 %111, ptr %9, align 4, !tbaa !25
  %112 = load ptr, ptr %7, align 8, !tbaa !40
  call void @ff_cbs_fragment_reset(ptr noundef %112)
  %113 = load i32, ptr %9, align 4, !tbaa !25
  %114 = icmp slt i32 %113, 0
  br i1 %114, label %115, label %117

115:                                              ; preds = %105
  %116 = load ptr, ptr %5, align 8, !tbaa !42
  call void @av_packet_unref(ptr noundef %116)
  br label %117

117:                                              ; preds = %115, %105
  %118 = load i32, ptr %9, align 4, !tbaa !25
  store i32 %118, ptr %3, align 4
  store i32 1, ptr %10, align 4
  br label %119

119:                                              ; preds = %117, %100, %21
  call void @llvm.lifetime.end.p0(i64 4, ptr %9) #4
  call void @llvm.lifetime.end.p0(i64 256, ptr %8) #4
  call void @llvm.lifetime.end.p0(i64 8, ptr %7) #4
  call void @llvm.lifetime.end.p0(i64 8, ptr %6) #4
  %120 = load i32, ptr %3, align 4
  ret i32 %120
}