; Function Attrs: nounwind uwtable
define internal i32 @trace_headers(ptr noundef %0, ptr noundef %1) #0 {
  %3 = alloca [256 x i8], align 16
  %4 = getelementptr inbounds nuw i8, ptr %0, i64 16
  %5 = load ptr, ptr %4, align 8, !tbaa !4
  %6 = getelementptr inbounds nuw i8, ptr %5, i64 8
  call void @llvm.lifetime.start.p0(i64 256, ptr nonnull %3) #4
  call void @llvm.memset.p0.i64(ptr noundef nonnull align 16 dereferenceable(256) %3, i8 0, i64 256, i1 false)
  %7 = tail call i32 @ff_bsf_get_packet_ref(ptr noundef %0, ptr noundef %1) #4
  %8 = icmp slt i32 %7, 0
  br i1 %8, label %53, label %9

9:                                                ; preds = %2
  %10 = getelementptr inbounds nuw i8, ptr %1, i64 40
  %11 = load i32, ptr %10, align 8, !tbaa !35
  %12 = and i32 %11, 1
  %.not = icmp eq i32 %12, 0
  br i1 %.not, label %15, label %13

13:                                               ; preds = %9
  %14 = call i64 @av_strlcat(ptr noundef nonnull %3, ptr noundef nonnull @.str.2, i64 noundef 256) #4
  %.pre = load i32, ptr %10, align 8, !tbaa !35
  br label %15

15:                                               ; preds = %13, %9
  %16 = phi i32 [ %.pre, %13 ], [ %11, %9 ]
  %17 = and i32 %16, 2
  %.not38 = icmp eq i32 %17, 0
  br i1 %.not38, label %20, label %18

18:                                               ; preds = %15
  %19 = call i64 @av_strlcat(ptr noundef nonnull %3, ptr noundef nonnull @.str.3, i64 noundef 256) #4
  br label %20

20:                                               ; preds = %18, %15
  %21 = getelementptr inbounds nuw i8, ptr %1, i64 8
  %22 = load i64, ptr %21, align 8, !tbaa !37
  %.not39 = icmp eq i64 %22, -9223372036854775808
  br i1 %.not39, label %25, label %23

23:                                               ; preds = %20
  %24 = call i64 (ptr, i64, ptr, ...) @av_strlcatf(ptr noundef nonnull %3, i64 noundef 256, ptr noundef nonnull @.str.4, i64 noundef %22) #4
  br label %27

25:                                               ; preds = %20
  %26 = call i64 @av_strlcat(ptr noundef nonnull %3, ptr noundef nonnull @.str.5, i64 noundef 256) #4
  br label %27

27:                                               ; preds = %25, %23
  %28 = getelementptr inbounds nuw i8, ptr %1, i64 16
  %29 = load i64, ptr %28, align 8, !tbaa !38
  %.not40 = icmp eq i64 %29, -9223372036854775808
  br i1 %.not40, label %32, label %30

30:                                               ; preds = %27
  %31 = call i64 (ptr, i64, ptr, ...) @av_strlcatf(ptr noundef nonnull %3, i64 noundef 256, ptr noundef nonnull @.str.6, i64 noundef %29) #4
  br label %34

32:                                               ; preds = %27
  %33 = call i64 @av_strlcat(ptr noundef nonnull %3, ptr noundef nonnull @.str.7, i64 noundef 256) #4
  br label %34

34:                                               ; preds = %32, %30
  %35 = getelementptr inbounds nuw i8, ptr %1, i64 64
  %36 = load i64, ptr %35, align 8, !tbaa !39
  %37 = icmp sgt i64 %36, 0
  br i1 %37, label %38, label %40

38:                                               ; preds = %34
  %39 = call i64 (ptr, i64, ptr, ...) @av_strlcatf(ptr noundef nonnull %3, i64 noundef 256, ptr noundef nonnull @.str.8, i64 noundef %36) #4
  br label %40

40:                                               ; preds = %38, %34
  %41 = getelementptr inbounds nuw i8, ptr %1, i64 32
  %42 = load i32, ptr %41, align 8, !tbaa !40
  call void (ptr, i32, ptr, ...) @av_log(ptr noundef nonnull %0, i32 noundef 32, ptr noundef nonnull @.str.9, i32 noundef %42, ptr noundef nonnull %3) #4
  %43 = call ptr @av_packet_get_side_data(ptr noundef nonnull %1, i32 noundef 1, ptr noundef null) #4
  %.not41 = icmp eq ptr %43, null
  br i1 %.not41, label %49, label %44

44:                                               ; preds = %40
  call void (ptr, i32, ptr, ...) @av_log(ptr noundef nonnull %0, i32 noundef 32, ptr noundef nonnull @.str.10) #4
  %45 = load ptr, ptr %5, align 8, !tbaa !21
  %46 = call i32 @ff_cbs_read_packet_side_data(ptr noundef %45, ptr noundef nonnull %6, ptr noundef nonnull %1) #4
  call void @ff_cbs_fragment_reset(ptr noundef nonnull %6) #4
  %47 = icmp slt i32 %46, 0
  br i1 %47, label %.sink.split, label %48

48:                                               ; preds = %44
  call void (ptr, i32, ptr, ...) @av_log(ptr noundef nonnull %0, i32 noundef 32, ptr noundef nonnull @.str.11) #4
  br label %49

49:                                               ; preds = %48, %40
  %50 = load ptr, ptr %5, align 8, !tbaa !21
  %51 = call i32 @ff_cbs_read_packet(ptr noundef %50, ptr noundef nonnull %6, ptr noundef nonnull %1) #4
  call void @ff_cbs_fragment_reset(ptr noundef nonnull %6) #4
  %52 = icmp slt i32 %51, 0
  br i1 %52, label %.sink.split, label %53

.sink.split:                                      ; preds = %49, %44
  %.0.ph = phi i32 [ %46, %44 ], [ %51, %49 ]
  call void @av_packet_unref(ptr noundef nonnull %1) #4
  br label %53

53:                                               ; preds = %.sink.split, %49, %2
  %.0 = phi i32 [ %7, %2 ], [ %51, %49 ], [ %.0.ph, %.sink.split ]
  call void @llvm.lifetime.end.p0(i64 256, ptr nonnull %3) #4
  ret i32 %.0
}